; Function Attrs: nounwind uwtable
define void @ff_set_mpeg4_time(ptr noundef %0) local_unnamed_addr #0 {
  %2 = getelementptr inbounds nuw i8, ptr %0, i64 1480
  %3 = load i32, ptr %2, align 8, !tbaa !45
  %4 = icmp eq i32 %3, 3
  br i1 %4, label %5, label %._crit_edge

5:                                                ; preds = %1
  tail call void @ff_mpeg4_init_direct_mv(ptr noundef nonnull %0) #13
  br label %17

._crit_edge:                                      ; preds = %1
  %6 = getelementptr inbounds nuw i8, ptr %0, i64 4056
  %7 = load i32, ptr %6, align 8, !tbaa !60
  %8 = getelementptr inbounds nuw i8, ptr %0, i64 4052
  store i32 %7, ptr %8, align 4, !tbaa !61
  %9 = getelementptr inbounds nuw i8, ptr %0, i64 4064
  %10 = load i64, ptr %9, align 8, !tbaa !62
  %11 = icmp sgt i64 %10, 0
  %.phi.trans.insert = getelementptr inbounds nuw i8, ptr %0, i64 472
  %.pre = load ptr, ptr %.phi.trans.insert, align 8, !tbaa !63
  %.phi.trans.insert10 = getelementptr inbounds nuw i8, ptr %.pre, i64 88
  %.pre11 = load i32, ptr %.phi.trans.insert10, align 4, !tbaa !64
  %.pre12 = sext i32 %.pre11 to i64
  %12 = add nsw i64 %10, 1
  %13 = sub i64 %12, %.pre12
  %14 = select i1 %11, i64 %10, i64 %13
  %15 = sdiv i64 %14, %.pre12
  %16 = trunc i64 %15 to i32
  store i32 %16, ptr %6, align 8, !tbaa !60
  br label %17

17:                                               ; preds = %._crit_edge, %5
  ret void
}